target datalayout = "e-m:e-p270:32:32-p271:32:32-p272:64:64-i64:64-i128:128-f80:128-n8:16:32:64-S128"
target triple = "x86_64-pc-linux-gnu"

%struct.tlv_info_t = type { i8, i8, i8, i8, i32, i32 }
%struct._packet_info = type { ptr, ptr, i32, i32, %struct.nstime_t, %struct.nstime_t, %struct.nstime_t, i8, ptr, ptr, ptr, ptr, %struct._address, %struct._address, %struct._address, %struct._address, %struct._address, %struct._address, i32, ptr, i8, [3 x i8], %struct.anon, i32, i32, i32, i32, ptr, i8, ptr, ptr, i16, i16, i32, i32, i16, i32, i32, ptr, ptr, ptr, i8, i8, i16, i16, i16, i32, i16, i16, ptr, ptr, ptr, ptr, ptr, i32, i32 }
%struct.nstime_t = type { i64, i32 }
%struct._address = type { i32, i32, ptr, ptr }
%struct.anon = type { i8, [3 x i8] }

@.str = private unnamed_addr constant [12 x i8] c"Invalid TLV\00", align 1
@hf_m2m_type = internal global i32 0, align 4
@hf_m2m_len_size = internal global i32 0, align 4
@hf_m2m_len = internal global i32 0, align 4

; Function Attrs: null_pointer_is_valid sspstrong uwtable
define hidden void @proto_tree_add_tlv(ptr noundef %0, ptr noundef %1, i32 noundef %2, ptr noundef %3, ptr noundef %4, i32 noundef %5, i32 noundef %6) #0 {
  %8 = alloca ptr, align 8
  %9 = alloca ptr, align 8
  %10 = alloca i32, align 4
  %11 = alloca ptr, align 8
  %12 = alloca ptr, align 8
  %13 = alloca i32, align 4
  %14 = alloca i32, align 4
  %15 = alloca i32, align 4
  %16 = alloca i32, align 4
  %17 = alloca i32, align 4
  %18 = alloca i32, align 4
  store ptr %0, ptr %8, align 8
  store ptr %1, ptr %9, align 8
  store i32 %2, ptr %10, align 4
  store ptr %3, ptr %11, align 8
  store ptr %4, ptr %12, align 8
  store i32 %5, ptr %13, align 4
  store i32 %6, ptr %14, align 4
  call void @llvm.lifetime.start.p0(i64 4, ptr %15) #3
  call void @llvm.lifetime.start.p0(i64 4, ptr %16) #3
  call void @llvm.lifetime.start.p0(i64 4, ptr %17) #3
  %19 = load ptr, ptr %8, align 8
  %20 = getelementptr inbounds nuw %struct.tlv_info_t, ptr %19, i32 0, i32 0
  %21 = load i8, ptr %20, align 4
  %22 = icmp ne i8 %21, 0
  br i1 %22, label %27, label %23

23:                                               ; preds = %7
  %24 = load ptr, ptr %11, align 8
  %25 = getelementptr inbounds nuw %struct._packet_info, ptr %24, i32 0, i32 1
  %26 = load ptr, ptr %25, align 8
  call void (ptr, i32, ptr, ptr, ...) @col_append_sep_fstr(ptr noundef %26, i32 noundef 25, ptr noundef null, ptr noundef @.str)
  store i32 1, ptr %18, align 4
  br label %90

27:                                               ; preds = %7
  %28 = load i32, ptr %10, align 4
  store i32 %28, ptr %15, align 4
  %29 = load ptr, ptr %12, align 8
  %30 = load i32, ptr @hf_m2m_type, align 4
  %31 = load ptr, ptr %9, align 8
  %32 = load i32, ptr %15, align 4
  %33 = call ptr @proto_tree_add_item(ptr noundef %29, i32 noundef %30, ptr noundef %31, i32 noundef %32, i32 noundef 1, i32 noundef 0)
  %34 = load i32, ptr %15, align 4
  %35 = add i32 %34, 1
  store i32 %35, ptr %15, align 4
  %36 = load ptr, ptr %8, align 8
  %37 = getelementptr inbounds nuw %struct.tlv_info_t, ptr %36, i32 0, i32 2
  %38 = load i8, ptr %37, align 2
  %39 = icmp ne i8 %38, 0
  br i1 %39, label %40, label %64

40:                                               ; preds = %27
  %41 = load ptr, ptr %12, align 8
  %42 = load i32, ptr @hf_m2m_len_size, align 4
  %43 = load ptr, ptr %9, align 8
  %44 = load i32, ptr %15, align 4
  %45 = call ptr @proto_tree_add_item(ptr noundef %41, i32 noundef %42, ptr noundef %43, i32 noundef %44, i32 noundef 1, i32 noundef 0)
  %46 = load i32, ptr %15, align 4
  %47 = add i32 %46, 1
  store i32 %47, ptr %15, align 4
  %48 = load ptr, ptr %8, align 8
  %49 = getelementptr inbounds nuw %struct.tlv_info_t, ptr %48, i32 0, i32 3
  %50 = load i8, ptr %49, align 1
  %51 = icmp ne i8 %50, 0
  br i1 %51, label %52, label %62

52:                                               ; preds = %40
  %53 = load ptr, ptr %12, align 8
  %54 = load i32, ptr @hf_m2m_len, align 4
  %55 = load ptr, ptr %9, align 8
  %56 = load i32, ptr %15, align 4
  %57 = load ptr, ptr %8, align 8
  %58 = getelementptr inbounds nuw %struct.tlv_info_t, ptr %57, i32 0, i32 3
  %59 = load i8, ptr %58, align 1
  %60 = zext i8 %59 to i32
  %61 = call ptr @proto_tree_add_item(ptr noundef %53, i32 noundef %54, ptr noundef %55, i32 noundef %56, i32 noundef %60, i32 noundef 0)
  br label %63

62:                                               ; preds = %40
  store i32 1, ptr %18, align 4
  br label %90

63:                                               ; preds = %52
  br label %70

64:                                               ; preds = %27
  %65 = load ptr, ptr %12, align 8
  %66 = load i32, ptr @hf_m2m_len, align 4
  %67 = load ptr, ptr %9, align 8
  %68 = load i32, ptr %15, align 4
  %69 = call ptr @proto_tree_add_item(ptr noundef %65, i32 noundef %66, ptr noundef %67, i32 noundef %68, i32 noundef 1, i32 noundef 0)
  br label %70

70:                                               ; preds = %64, %63
  %71 = load ptr, ptr %8, align 8
  %72 = call i32 @get_tlv_type(ptr noundef %71)
  store i32 %72, ptr %16, align 4
  %73 = load i32, ptr %16, align 4
  %74 = icmp eq i32 %73, 2
  br i1 %74, label %75, label %76

75:                                               ; preds = %70
  store i32 1, ptr %18, align 4
  br label %90

76:                                               ; preds = %70
  %77 = load ptr, ptr %8, align 8
  %78 = call i32 @get_tlv_length(ptr noundef %77)
  store i32 %78, ptr %17, align 4
  %79 = load ptr, ptr %12, align 8
  %80 = load i32, ptr %13, align 4
  %81 = load ptr, ptr %9, align 8
  %82 = load i32, ptr %10, align 4
  %83 = load ptr, ptr %8, align 8
  %84 = getelementptr inbounds nuw %struct.tlv_info_t, ptr %83, i32 0, i32 4
  %85 = load i32, ptr %84, align 4
  %86 = add i32 %82, %85
  %87 = load i32, ptr %17, align 4
  %88 = load i32, ptr %14, align 4
  %89 = call ptr @proto_tree_add_item(ptr noundef %79, i32 noundef %80, ptr noundef %81, i32 noundef %86, i32 noundef %87, i32 noundef %88)
  store i32 0, ptr %18, align 4
  br label %90

90:                                               ; preds = %76, %75, %62, %23
  call void @llvm.lifetime.end.p0(i64 4, ptr %17) #3
  call void @llvm.lifetime.end.p0(i64 4, ptr %16) #3
  call void @llvm.lifetime.end.p0(i64 4, ptr %15) #3
  %91 = load i32, ptr %18, align 4
  switch i32 %91, label %93 [
    i32 0, label %92
    i32 1, label %92
  ]

92:                                               ; preds = %90, %90
  ret void

93:                                               ; preds = %90
  unreachable
}