; Function Attrs: null_pointer_is_valid sspstrong uwtable
define hidden void @proto_tree_add_tlv(ptr noundef %0, ptr noundef %1, i32 noundef %2, ptr noundef readonly captures(none) %3, ptr noundef %4, i32 noundef %5, i32 noundef %6) local_unnamed_addr #0 {
  %8 = load i8, ptr %0, align 4
  %.not = icmp eq i8 %8, 0
  br i1 %.not, label %9, label %12

9:                                                ; preds = %7
  %10 = getelementptr inbounds nuw i8, ptr %3, i64 8
  %11 = load ptr, ptr %10, align 8
  tail call void (ptr, i32, ptr, ptr, ...) @col_append_sep_fstr(ptr noundef %11, i32 noundef 25, ptr noundef null, ptr noundef nonnull @.str)
  br label %40

12:                                               ; preds = %7
  %13 = load i32, ptr @hf_m2m_type, align 4
  %14 = tail call ptr @proto_tree_add_item(ptr noundef %4, i32 noundef %13, ptr noundef %1, i32 noundef %2, i32 noundef 1, i32 noundef 0)
  %15 = add i32 %2, 1
  %16 = getelementptr inbounds nuw i8, ptr %0, i64 2
  %17 = load i8, ptr %16, align 2
  %.not29 = icmp eq i8 %17, 0
  br i1 %.not29, label %28, label %18

18:                                               ; preds = %12
  %19 = load i32, ptr @hf_m2m_len_size, align 4
  %20 = tail call ptr @proto_tree_add_item(ptr noundef %4, i32 noundef %19, ptr noundef %1, i32 noundef %15, i32 noundef 1, i32 noundef 0)
  %21 = getelementptr inbounds nuw i8, ptr %0, i64 3
  %22 = load i8, ptr %21, align 1
  %.not30 = icmp eq i8 %22, 0
  br i1 %.not30, label %40, label %23

23:                                               ; preds = %18
  %24 = add i32 %2, 2
  %25 = load i32, ptr @hf_m2m_len, align 4
  %26 = zext i8 %22 to i32
  %27 = tail call ptr @proto_tree_add_item(ptr noundef %4, i32 noundef %25, ptr noundef %1, i32 noundef %24, i32 noundef %26, i32 noundef 0)
  br label %31

28:                                               ; preds = %12
  %29 = load i32, ptr @hf_m2m_len, align 4
  %30 = tail call ptr @proto_tree_add_item(ptr noundef %4, i32 noundef %29, ptr noundef %1, i32 noundef %15, i32 noundef 1, i32 noundef 0)
  br label %31

31:                                               ; preds = %28, %23
  %32 = tail call i32 @get_tlv_type(ptr noundef %0)
  %33 = icmp eq i32 %32, 2
  br i1 %33, label %40, label %34

34:                                               ; preds = %31
  %35 = tail call i32 @get_tlv_length(ptr noundef %0)
  %36 = getelementptr inbounds nuw i8, ptr %0, i64 4
  %37 = load i32, ptr %36, align 4
  %38 = add i32 %37, %2
  %39 = tail call ptr @proto_tree_add_item(ptr noundef %4, i32 noundef %5, ptr noundef %1, i32 noundef %38, i32 noundef %35, i32 noundef %6)
  br label %40

40:                                               ; preds = %31, %18, %34, %9
  ret void
}